target datalayout = "e-m:e-p270:32:32-p271:32:32-p272:64:64-i64:64-i128:128-f80:128-n8:16:32:64-S128"
target triple = "x86_64-pc-linux-gnu"

%struct.jpeg_compress_struct = type { ptr, ptr, ptr, ptr, i32, i32, ptr, i32, i32, i32, i32, double, i32, i32, i32, ptr, [4 x ptr], [4 x ptr], [4 x ptr], [16 x i8], [16 x i8], [16 x i8], i32, ptr, i32, i32, i32, i32, i32, i32, i32, i32, i32, i8, i8, i8, i16, i16, i32, i32, i32, i32, i32, i32, i32, [4 x ptr], i32, i32, i32, [10 x i32], i32, i32, i32, i32, ptr, ptr, ptr, ptr, ptr, ptr, ptr, ptr, ptr, ptr, i32 }
%struct.jpeg_lossless_compressor = type { %struct.jpeg_forward_dct, [10 x ptr], [10 x i32], ptr }
%struct.jpeg_forward_dct = type { ptr, ptr, ptr }

; Function Attrs: nounwind uwtable
define internal void @reset_predictor(ptr noundef %0, i32 noundef %1) #0 {
  %3 = alloca ptr, align 8
  %4 = alloca i32, align 4
  %5 = alloca ptr, align 8
  store ptr %0, ptr %3, align 8, !tbaa !3
  store i32 %1, ptr %4, align 4, !tbaa !45
  call void @llvm.lifetime.start.p0(i64 8, ptr %5) #3
  %6 = load ptr, ptr %3, align 8, !tbaa !3
  %7 = getelementptr inbounds nuw %struct.jpeg_compress_struct, ptr %6, i32 0, i32 61
  %8 = load ptr, ptr %7, align 8, !tbaa !37
  store ptr %8, ptr %5, align 8, !tbaa !36
  %9 = load ptr, ptr %3, align 8, !tbaa !3
  %10 = getelementptr inbounds nuw %struct.jpeg_compress_struct, ptr %9, i32 0, i32 30
  %11 = load i32, ptr %10, align 8, !tbaa !43
  %12 = load ptr, ptr %3, align 8, !tbaa !3
  %13 = getelementptr inbounds nuw %struct.jpeg_compress_struct, ptr %12, i32 0, i32 46
  %14 = load i32, ptr %13, align 8, !tbaa !44
  %15 = udiv i32 %11, %14
  %16 = load ptr, ptr %5, align 8, !tbaa !36
  %17 = getelementptr inbounds nuw %struct.jpeg_lossless_compressor, ptr %16, i32 0, i32 2
  %18 = load i32, ptr %4, align 4, !tbaa !45
  %19 = sext i32 %18 to i64
  %20 = getelementptr inbounds [10 x i32], ptr %17, i64 0, i64 %19
  store i32 %15, ptr %20, align 4, !tbaa !45
  %21 = load ptr, ptr %5, align 8, !tbaa !36
  %22 = getelementptr inbounds nuw %struct.jpeg_lossless_compressor, ptr %21, i32 0, i32 1
  %23 = load i32, ptr %4, align 4, !tbaa !45
  %24 = sext i32 %23 to i64
  %25 = getelementptr inbounds [10 x ptr], ptr %22, i64 0, i64 %24
  store ptr @jpeg_difference_first_row, ptr %25, align 8, !tbaa !36
  call void @llvm.lifetime.end.p0(i64 8, ptr %5) #3
  ret void
}

; Function Attrs: nounwind uwtable
define internal void @jpeg_difference4(ptr noundef %0, i32 noundef %1, ptr noundef %2, ptr noundef %3, ptr noundef %4, i32 noundef %5) #0 {
  %7 = alloca ptr, align 8
  %8 = alloca i32, align 4
  %9 = alloca ptr, align 8
  %10 = alloca ptr, align 8
  %11 = alloca ptr, align 8
  %12 = alloca i32, align 4
  %13 = alloca ptr, align 8
  %14 = alloca i32, align 4
  %15 = alloca i32, align 4
  %16 = alloca i32, align 4
  %17 = alloca i32, align 4
  store ptr %0, ptr %7, align 8, !tbaa !3
  store i32 %1, ptr %8, align 4, !tbaa !45
  store ptr %2, ptr %9, align 8, !tbaa !49
  store ptr %3, ptr %10, align 8, !tbaa !49
  store ptr %4, ptr %11, align 8, !tbaa !52
  store i32 %5, ptr %12, align 4, !tbaa !45
  call void @llvm.lifetime.start.p0(i64 8, ptr %13) #3
  %18 = load ptr, ptr %7, align 8, !tbaa !3
  %19 = getelementptr inbounds nuw %struct.jpeg_compress_struct, ptr %18, i32 0, i32 61
  %20 = load ptr, ptr %19, align 8, !tbaa !37
  store ptr %20, ptr %13, align 8, !tbaa !36
  call void @llvm.lifetime.start.p0(i64 4, ptr %14) #3
  call void @llvm.lifetime.start.p0(i64 4, ptr %15) #3
  call void @llvm.lifetime.start.p0(i64 4, ptr %16) #3
  call void @llvm.lifetime.start.p0(i64 4, ptr %17) #3
  %21 = load ptr, ptr %10, align 8, !tbaa !49
  %22 = getelementptr inbounds nuw i8, ptr %21, i32 1
  store ptr %22, ptr %10, align 8, !tbaa !49
  %23 = load i8, ptr %21, align 1, !tbaa !31
  %24 = zext i8 %23 to i32
  store i32 %24, ptr %16, align 4, !tbaa !45
  %25 = load ptr, ptr %9, align 8, !tbaa !49
  %26 = getelementptr inbounds nuw i8, ptr %25, i32 1
  store ptr %26, ptr %9, align 8, !tbaa !49
  %27 = load i8, ptr %25, align 1, !tbaa !31
  %28 = zext i8 %27 to i32
  store i32 %28, ptr %14, align 4, !tbaa !45
  %29 = load i32, ptr %14, align 4, !tbaa !45
  %30 = load i32, ptr %16, align 4, !tbaa !45
  %31 = sub nsw i32 %29, %30
  %32 = load ptr, ptr %11, align 8, !tbaa !52
  %33 = getelementptr inbounds nuw i32, ptr %32, i32 1
  store ptr %33, ptr %11, align 8, !tbaa !52
  store i32 %31, ptr %32, align 4, !tbaa !45
  br label %34

34:                                               ; preds = %38, %6
  %35 = load i32, ptr %12, align 4, !tbaa !45
  %36 = add i32 %35, -1
  store i32 %36, ptr %12, align 4, !tbaa !45
  %37 = icmp ne i32 %36, 0
  br i1 %37, label %38, label %62

38:                                               ; preds = %34
  %39 = load i32, ptr %16, align 4, !tbaa !45
  store i32 %39, ptr %17, align 4, !tbaa !45
  %40 = load ptr, ptr %10, align 8, !tbaa !49
  %41 = getelementptr inbounds nuw i8, ptr %40, i32 1
  store ptr %41, ptr %10, align 8, !tbaa !49
  %42 = load i8, ptr %40, align 1, !tbaa !31
  %43 = zext i8 %42 to i32
  store i32 %43, ptr %16, align 4, !tbaa !45
  %44 = load i32, ptr %14, align 4, !tbaa !45
  store i32 %44, ptr %15, align 4, !tbaa !45
  %45 = load ptr, ptr %9, align 8, !tbaa !49
  %46 = getelementptr inbounds nuw i8, ptr %45, i32 1
  store ptr %46, ptr %9, align 8, !tbaa !49
  %47 = load i8, ptr %45, align 1, !tbaa !31
  %48 = zext i8 %47 to i32
  store i32 %48, ptr %14, align 4, !tbaa !45
  %49 = load i32, ptr %14, align 4, !tbaa !45
  %50 = load i32, ptr %15, align 4, !tbaa !45
  %51 = sext i32 %50 to i64
  %52 = load i32, ptr %16, align 4, !tbaa !45
  %53 = sext i32 %52 to i64
  %54 = add nsw i64 %51, %53
  %55 = load i32, ptr %17, align 4, !tbaa !45
  %56 = sext i32 %55 to i64
  %57 = sub nsw i64 %54, %56
  %58 = trunc i64 %57 to i32
  %59 = sub nsw i32 %49, %58
  %60 = load ptr, ptr %11, align 8, !tbaa !52
  %61 = getelementptr inbounds nuw i32, ptr %60, i32 1
  store ptr %61, ptr %11, align 8, !tbaa !52
  store i32 %59, ptr %60, align 4, !tbaa !45
  br label %34, !llvm.loop !59

62:                                               ; preds = %34
  %63 = load ptr, ptr %7, align 8, !tbaa !3
  %64 = getelementptr inbounds nuw %struct.jpeg_compress_struct, ptr %63, i32 0, i32 30
  %65 = load i32, ptr %64, align 8, !tbaa !43
  %66 = icmp ne i32 %65, 0
  br i1 %66, label %67, label %80

67:                                               ; preds = %62
  %68 = load ptr, ptr %13, align 8, !tbaa !36
  %69 = getelementptr inbounds nuw %struct.jpeg_lossless_compressor, ptr %68, i32 0, i32 2
  %70 = load i32, ptr %8, align 4, !tbaa !45
  %71 = sext i32 %70 to i64
  %72 = getelementptr inbounds [10 x i32], ptr %69, i64 0, i64 %71
  %73 = load i32, ptr %72, align 4, !tbaa !45
  %74 = add i32 %73, -1
  store i32 %74, ptr %72, align 4, !tbaa !45
  %75 = icmp eq i32 %74, 0
  br i1 %75, label %76, label %79

76:                                               ; preds = %67
  %77 = load ptr, ptr %7, align 8, !tbaa !3
  %78 = load i32, ptr %8, align 4, !tbaa !45
  call void @reset_predictor(ptr noundef %77, i32 noundef %78)
  br label %79

79:                                               ; preds = %76, %67
  br label %80

80:                                               ; preds = %79, %62
  call void @llvm.lifetime.end.p0(i64 4, ptr %17) #3
  call void @llvm.lifetime.end.p0(i64 4, ptr %16) #3
  call void @llvm.lifetime.end.p0(i64 4, ptr %15) #3
  call void @llvm.lifetime.end.p0(i64 4, ptr %14) #3
  call void @llvm.lifetime.end.p0(i64 8, ptr %13) #3
  ret void
}