; Function Attrs: nofree norecurse nosync nounwind memory(readwrite, inaccessiblemem: none) uwtable
define internal void @jpeg_difference4(ptr noundef readonly captures(none) %0, i32 noundef %1, ptr noundef readonly captures(none) %2, ptr noundef readonly captures(none) %3, ptr noundef writeonly captures(none) initializes((0, 4)) %4, i32 noundef %5) #4 {
  %7 = getelementptr inbounds nuw i8, ptr %0, i64 488
  %8 = load ptr, ptr %7, align 8, !tbaa !34
  %9 = load i8, ptr %3, align 1, !tbaa !29
  %10 = zext i8 %9 to i32
  %11 = load i8, ptr %2, align 1, !tbaa !29
  %12 = zext i8 %11 to i32
  %13 = sub nsw i32 %12, %10
  store i32 %13, ptr %4, align 4, !tbaa !43
  %14 = add i32 %5, -1
  %.not31 = icmp eq i32 %14, 0
  br i1 %.not31, label %._crit_edge, label %.lr.ph

.lr.ph:                                           ; preds = %6, %.lr.ph
  %15 = phi i32 [ %22, %.lr.ph ], [ %14, %6 ]
  %.pn2736 = phi ptr [ %.0, %.lr.ph ], [ %2, %6 ]
  %.02035 = phi i32 [ %17, %.lr.ph ], [ %10, %6 ]
  %.pn34 = phi ptr [ %.021, %.lr.ph ], [ %3, %6 ]
  %.02233 = phi i32 [ %19, %.lr.ph ], [ %12, %6 ]
  %.pn2832 = phi ptr [ %.023, %.lr.ph ], [ %4, %6 ]
  %.023 = getelementptr inbounds nuw i8, ptr %.pn2832, i64 4
  %.0 = getelementptr inbounds nuw i8, ptr %.pn2736, i64 1
  %.021 = getelementptr inbounds nuw i8, ptr %.pn34, i64 1
  %16 = load i8, ptr %.021, align 1, !tbaa !29
  %17 = zext i8 %16 to i32
  %18 = load i8, ptr %.0, align 1, !tbaa !29
  %19 = zext i8 %18 to i32
  %20 = add nuw nsw i32 %.02233, %17
  %.neg = sub nsw i32 %.02035, %20
  %21 = add nsw i32 %.neg, %19
  store i32 %21, ptr %.023, align 4, !tbaa !43
  %22 = add i32 %15, -1
  %.not = icmp eq i32 %22, 0
  br i1 %.not, label %._crit_edge, label %.lr.ph, !llvm.loop !53

._crit_edge:                                      ; preds = %.lr.ph, %6
  %23 = getelementptr inbounds nuw i8, ptr %0, i64 280
  %24 = load i32, ptr %23, align 8, !tbaa !40
  %.not26 = icmp eq i32 %24, 0
  br i1 %.not26, label %39, label %25

25:                                               ; preds = %._crit_edge
  %26 = getelementptr inbounds nuw i8, ptr %8, i64 104
  %27 = sext i32 %1 to i64
  %28 = getelementptr inbounds [10 x i32], ptr %26, i64 0, i64 %27
  %29 = load i32, ptr %28, align 4, !tbaa !43
  %30 = add i32 %29, -1
  store i32 %30, ptr %28, align 4, !tbaa !43
  %31 = icmp eq i32 %30, 0
  br i1 %31, label %32, label %39

32:                                               ; preds = %25
  %33 = load i32, ptr %23, align 8, !tbaa !40
  %34 = getelementptr inbounds nuw i8, ptr %0, i64 360
  %35 = load i32, ptr %34, align 8, !tbaa !41
  %36 = udiv i32 %33, %35
  store i32 %36, ptr %28, align 4, !tbaa !43
  %37 = getelementptr inbounds nuw i8, ptr %8, i64 24
  %38 = getelementptr inbounds [10 x ptr], ptr %37, i64 0, i64 %27
  store ptr @jpeg_difference_first_row, ptr %38, align 8, !tbaa !44
  br label %39

39:                                               ; preds = %25, %32, %._crit_edge
  ret void
}